; Function Attrs: null_pointer_is_valid sspstrong uwtable
define internal fastcc i32 @cmd_ldf_upload(ptr noundef %0, ptr noundef %1) unnamed_addr #0 {
  %3 = tail call i32 @tvb_reported_length_remaining(ptr noundef %0, i32 noundef 12)
  %4 = load i32, ptr @hf_gryphon_ldf_blockn, align 4
  %5 = tail call ptr @proto_tree_add_item(ptr noundef %1, i32 noundef %4, ptr noundef %0, i32 noundef 12, i32 noundef 2, i32 noundef 0)
  %6 = load i32, ptr @hf_gryphon_ldf_file, align 4
  %7 = add i32 %3, -2
  %8 = tail call ptr @proto_tree_add_item(ptr noundef %1, i32 noundef %6, ptr noundef %0, i32 noundef 14, i32 noundef %7, i32 noundef 0)
  %9 = add i32 %3, 12
  ret i32 %9
}